; Function Attrs: nounwind uwtable
define zeroext range(i8 0, 2) i8 @l_Lean_NameHashSet_contains(ptr noundef readonly captures(none) %0, ptr noundef %1) local_unnamed_addr #2 {
lean_dec.exit23:
  %2 = getelementptr inbounds nuw i8, ptr %0, i64 16
  %3 = load ptr, ptr %2, align 8, !tbaa !9
  %4 = getelementptr i8, ptr %3, i64 8
  %.val = load i64, ptr %4, align 8, !tbaa !14
  %5 = and i64 %.val, 9223372036854775807
  %6 = tail call i64 @l_Lean_Name_hash___override(ptr noundef %1) #6
  %7 = lshr i64 %6, 32
  %8 = xor i64 %7, %6
  %9 = lshr i64 %8, 16
  %10 = xor i64 %9, %8
  %11 = add nsw i64 %5, -1
  %12 = and i64 %10, %11
  %13 = getelementptr inbounds nuw i8, ptr %3, i64 24
  %14 = getelementptr inbounds nuw [0 x ptr], ptr %13, i64 0, i64 %12
  %15 = load ptr, ptr %14, align 8, !tbaa !9
  %16 = ptrtoint ptr %15 to i64
  %17 = and i64 %16, 1
  %.not.i27 = icmp eq i64 %17, 0
  br i1 %.not.i27, label %18, label %lean_array_uget.exit.preheader

18:                                               ; preds = %lean_dec.exit23
  %.val.i.i = load i32, ptr %15, align 4, !tbaa !4
  %19 = icmp sgt i32 %.val.i.i, 0
  br i1 %19, label %20, label %22, !prof !11

20:                                               ; preds = %18
  %21 = add nuw i32 %.val.i.i, 1
  store i32 %21, ptr %15, align 4, !tbaa !4
  br label %lean_array_uget.exit.preheader

22:                                               ; preds = %18
  %.not.i.i = icmp eq i32 %.val.i.i, 0
  br i1 %.not.i.i, label %lean_array_uget.exit.preheader, label %23

23:                                               ; preds = %22
  tail call void @lean_inc_ref_cold(ptr noundef nonnull %15) #6
  br label %lean_array_uget.exit.preheader

lean_array_uget.exit.preheader:                   ; preds = %lean_dec.exit23, %20, %22, %23
  br label %lean_array_uget.exit

lean_array_uget.exit:                             ; preds = %lean_array_uget.exit.preheader, %33
  %.011.i = phi ptr [ %37, %33 ], [ %15, %lean_array_uget.exit.preheader ]
  %24 = ptrtoint ptr %.011.i to i64
  %25 = and i64 %24, 1
  %.not.i.i28 = icmp eq i64 %25, 0
  br i1 %.not.i.i28, label %29, label %26

26:                                               ; preds = %lean_array_uget.exit
  %27 = lshr i64 %24, 1
  %28 = trunc i64 %27 to i32
  br label %lean_obj_tag.exit.i

29:                                               ; preds = %lean_array_uget.exit
  %30 = getelementptr i8, ptr %.011.i, i64 4
  %.val.i.i29 = load i32, ptr %30, align 4
  %31 = lshr i32 %.val.i.i29, 24
  br label %lean_obj_tag.exit.i

lean_obj_tag.exit.i:                              ; preds = %29, %26
  %.0.i.i = phi i32 [ %28, %26 ], [ %31, %29 ]
  %32 = icmp eq i32 %.0.i.i, 0
  br i1 %32, label %l_Std_DHashMap_Internal_AssocList_contains___at_Lean_NameSSet_insert___spec__6.exit, label %33

33:                                               ; preds = %lean_obj_tag.exit.i
  %34 = getelementptr inbounds nuw i8, ptr %.011.i, i64 8
  %35 = load ptr, ptr %34, align 8, !tbaa !9
  %36 = getelementptr inbounds nuw i8, ptr %.011.i, i64 24
  %37 = load ptr, ptr %36, align 8, !tbaa !9
  %38 = tail call zeroext i8 @lean_name_eq(ptr noundef %35, ptr noundef %1) #6
  %39 = icmp eq i8 %38, 0
  br i1 %39, label %lean_array_uget.exit, label %l_Std_DHashMap_Internal_AssocList_contains___at_Lean_NameSSet_insert___spec__6.exit

l_Std_DHashMap_Internal_AssocList_contains___at_Lean_NameSSet_insert___spec__6.exit: ; preds = %lean_obj_tag.exit.i, %33
  %.1.i = phi i8 [ 1, %33 ], [ 0, %lean_obj_tag.exit.i ]
  br i1 %.not.i27, label %40, label %lean_dec.exit

40:                                               ; preds = %l_Std_DHashMap_Internal_AssocList_contains___at_Lean_NameSSet_insert___spec__6.exit
  %41 = load i32, ptr %15, align 4, !tbaa !4
  %42 = icmp sgt i32 %41, 1
  br i1 %42, label %43, label %45, !prof !11

43:                                               ; preds = %40
  %44 = add nsw i32 %41, -1
  store i32 %44, ptr %15, align 4, !tbaa !4
  br label %lean_dec.exit

45:                                               ; preds = %40
  %.not.i24 = icmp eq i32 %41, 0
  br i1 %.not.i24, label %lean_dec.exit, label %46

46:                                               ; preds = %45
  tail call void @lean_dec_ref_cold(ptr noundef nonnull %15) #6
  br label %lean_dec.exit

lean_dec.exit:                                    ; preds = %46, %45, %43, %l_Std_DHashMap_Internal_AssocList_contains___at_Lean_NameSSet_insert___spec__6.exit
  ret i8 %.1.i
}